; Function Attrs: mustprogress uwtable
define internal noundef zeroext i1 @"_ZNSt17_Function_handlerIFivESt5_BindIFZN4pbrt3GUI14RefreshDisplayEvE3$_0NS2_5ImageEiEEE10_M_managerERSt9_Any_dataRKS9_St18_Manager_operation"(ptr noundef nonnull align 8 captures(none) dereferenceable(16) %0, ptr noundef nonnull readonly align 8 captures(none) dereferenceable(16) %1, i32 noundef %2) #1 align 2 personality ptr @__gxx_personality_v0 {
  switch i32 %2, label %"_ZNSt14_Function_base13_Base_managerISt5_BindIFZN4pbrt3GUI14RefreshDisplayEvE3$_0NS2_5ImageEiEEE10_M_managerERSt9_Any_dataRKS9_St18_Manager_operation.exit" [
    i32 0, label %4
    i32 1, label %5
    i32 3, label %15
    i32 2, label %6
  ]

4:                                                ; preds = %3
  store ptr @"_ZTISt5_BindIFZN4pbrt3GUI14RefreshDisplayEvE3$_0NS0_5ImageEiEE", ptr %0, align 8, !tbaa !358
  br label %"_ZNSt14_Function_base13_Base_managerISt5_BindIFZN4pbrt3GUI14RefreshDisplayEvE3$_0NS2_5ImageEiEEE10_M_managerERSt9_Any_dataRKS9_St18_Manager_operation.exit"

5:                                                ; preds = %3
  %.val = load ptr, ptr %1, align 8, !tbaa !343
  store ptr %.val, ptr %0, align 8, !tbaa !343
  br label %"_ZNSt14_Function_base13_Base_managerISt5_BindIFZN4pbrt3GUI14RefreshDisplayEvE3$_0NS2_5ImageEiEEE10_M_managerERSt9_Any_dataRKS9_St18_Manager_operation.exit"

6:                                                ; preds = %3
  %.val6 = load ptr, ptr %1, align 8
  %7 = tail call noalias noundef nonnull dereferenceable(168) ptr @_Znwm(i64 noundef 168) #30
  %8 = getelementptr inbounds nuw i8, ptr %7, i64 8
  %9 = getelementptr inbounds nuw i8, ptr %.val6, i64 8
  %10 = load i32, ptr %9, align 8
  store i32 %10, ptr %8, align 8
  %11 = getelementptr inbounds nuw i8, ptr %7, i64 16
  %12 = getelementptr inbounds nuw i8, ptr %.val6, i64 16
  invoke void @_ZN4pbrt5ImageC2ERKS0_(ptr noundef nonnull align 8 dereferenceable(152) %11, ptr noundef nonnull align 8 dereferenceable(152) %12)
          to label %"_ZNSt14_Function_base13_Base_managerISt5_BindIFZN4pbrt3GUI14RefreshDisplayEvE3$_0NS2_5ImageEiEEE15_M_init_functorIRKS7_EEvRSt9_Any_dataOT_.exit.i" unwind label %13

13:                                               ; preds = %6
  %14 = landingpad { ptr, i32 }
          cleanup
  tail call void @_ZdlPvm(ptr noundef nonnull %7, i64 noundef 168) #31
  resume { ptr, i32 } %14

"_ZNSt14_Function_base13_Base_managerISt5_BindIFZN4pbrt3GUI14RefreshDisplayEvE3$_0NS2_5ImageEiEEE15_M_init_functorIRKS7_EEvRSt9_Any_dataOT_.exit.i": ; preds = %6
  store ptr %7, ptr %0, align 8, !tbaa !343
  br label %"_ZNSt14_Function_base13_Base_managerISt5_BindIFZN4pbrt3GUI14RefreshDisplayEvE3$_0NS2_5ImageEiEEE10_M_managerERSt9_Any_dataRKS9_St18_Manager_operation.exit"

15:                                               ; preds = %3
  %.val7.i = load ptr, ptr %0, align 8, !tbaa !343
  %16 = icmp eq ptr %.val7.i, null
  br i1 %16, label %"_ZNSt14_Function_base13_Base_managerISt5_BindIFZN4pbrt3GUI14RefreshDisplayEvE3$_0NS2_5ImageEiEEE10_M_managerERSt9_Any_dataRKS9_St18_Manager_operation.exit", label %17

17:                                               ; preds = %15
  %18 = getelementptr inbounds nuw i8, ptr %.val7.i, i64 16
  tail call void @_ZN4pbrt5ImageD2Ev(ptr noundef nonnull align 8 dereferenceable(152) %18) #28
  tail call void @_ZdlPvm(ptr noundef nonnull %.val7.i, i64 noundef 168) #31
  br label %"_ZNSt14_Function_base13_Base_managerISt5_BindIFZN4pbrt3GUI14RefreshDisplayEvE3$_0NS2_5ImageEiEEE10_M_managerERSt9_Any_dataRKS9_St18_Manager_operation.exit"

"_ZNSt14_Function_base13_Base_managerISt5_BindIFZN4pbrt3GUI14RefreshDisplayEvE3$_0NS2_5ImageEiEEE10_M_managerERSt9_Any_dataRKS9_St18_Manager_operation.exit": ; preds = %3, %17, %15, %"_ZNSt14_Function_base13_Base_managerISt5_BindIFZN4pbrt3GUI14RefreshDisplayEvE3$_0NS2_5ImageEiEEE15_M_init_functorIRKS7_EEvRSt9_Any_dataOT_.exit.i", %5, %4
  ret i1 false
}